---
triple:          'arm64-apple-darwin'
binary-path:     hough_mpi
relocations:
  - { offsetInCU: 0xA4D3, offset: 0xA4D3, size: 0x8, addend: 0x0, symName: __ZNSt3__124__put_character_sequenceB7v160006IcNS_11char_traitsIcEEEERNS_13basic_ostreamIT_T0_EES7_PKS4_m, symObjAddr: 0x1C0C, symBinAddr: 0x100003A10, symSize: 0x1EC }
  - { offsetInCU: 0x10402, offset: 0x10402, size: 0x8, addend: 0x0, symName: __ZNSt3__1lsB7v160006INS_11char_traitsIcEEEERNS_13basic_ostreamIcT_EES6_PKc, symObjAddr: 0x11A8, symBinAddr: 0x100002FAC, symSize: 0x48 }
  - { offsetInCU: 0x10448, offset: 0x10448, size: 0x8, addend: 0x0, symName: __ZNSt3__14endlB7v160006IcNS_11char_traitsIcEEEERNS_13basic_ostreamIT_T0_EES7_, symObjAddr: 0x121C, symBinAddr: 0x100003020, symSize: 0x58 }
  - { offsetInCU: 0x10488, offset: 0x10488, size: 0x8, addend: 0x0, symName: __ZNSt3__119__debug_db_insert_cB7v160006INS_12basic_stringIcNS_11char_traitsIcEENS_9allocatorIcEEEEEEvPT_, symObjAddr: 0x1B10, symBinAddr: 0x100003914, symSize: 0x10 }
  - { offsetInCU: 0x104B9, offset: 0x104B9, size: 0x8, addend: 0x0, symName: __ZNSt3__118__constexpr_strlenB7v160006EPKc, symObjAddr: 0x1BDC, symBinAddr: 0x1000039E0, symSize: 0x24 }
  - { offsetInCU: 0x104E5, offset: 0x104E5, size: 0x8, addend: 0x0, symName: __ZNSt3__116__pad_and_outputB7v160006IcNS_11char_traitsIcEEEENS_19ostreambuf_iteratorIT_T0_EES6_PKS4_S8_S8_RNS_8ios_baseES4_, symObjAddr: 0x1E14, symBinAddr: 0x100003C18, symSize: 0x240 }
  - { offsetInCU: 0x105B4, offset: 0x105B4, size: 0x8, addend: 0x0, symName: __ZNSt3__112__to_addressB7v160006IKcEEPT_S3_, symObjAddr: 0x228C, symBinAddr: 0x100004090, symSize: 0x14 }
  - { offsetInCU: 0x1061C, offset: 0x1061C, size: 0x8, addend: 0x0, symName: __ZNSt3__19use_facetB7v160006INS_5ctypeIcEEEERKT_RKNS_6localeE, symObjAddr: 0x250C, symBinAddr: 0x100004310, symSize: 0x2C }
  - { offsetInCU: 0x10AEB, offset: 0x10AEB, size: 0x8, addend: 0x0, symName: __ZNSt3__119__debug_db_insert_cB7v160006INS_6vectorIiNS_9allocatorIiEEEEEEvPT_, symObjAddr: 0x2638, symBinAddr: 0x10000443C, symSize: 0x10 }
  - { offsetInCU: 0x10B1C, offset: 0x10B1C, size: 0x8, addend: 0x0, symName: __ZNSt3__118__debug_db_erase_cB7v160006INS_6vectorIiNS_9allocatorIiEEEEEEvPT_, symObjAddr: 0x28FC, symBinAddr: 0x100004700, symSize: 0x10 }
  - { offsetInCU: 0x10B4D, offset: 0x10B4D, size: 0x8, addend: 0x0, symName: __ZNSt3__112__to_addressB7v160006IiEEPT_S2_, symObjAddr: 0x2A40, symBinAddr: 0x100004844, symSize: 0x14 }
  - { offsetInCU: 0x10B82, offset: 0x10B82, size: 0x8, addend: 0x0, symName: __ZNSt3__119__libcpp_deallocateB7v160006EPvmm, symObjAddr: 0x2B60, symBinAddr: 0x100004964, symSize: 0x30 }
  - { offsetInCU: 0x10BCA, offset: 0x10BCA, size: 0x8, addend: 0x0, symName: __ZNSt3__127__do_deallocate_handle_sizeB7v160006IJEEEvPvmDpT_, symObjAddr: 0x2B90, symBinAddr: 0x100004994, symSize: 0x28 }
  - { offsetInCU: 0x10C08, offset: 0x10C08, size: 0x8, addend: 0x0, symName: __ZNSt3__124__libcpp_operator_deleteB7v160006IJPvEEEvDpT_, symObjAddr: 0x2BB8, symBinAddr: 0x1000049BC, symSize: 0x24 }
  - { offsetInCU: 0x10C3D, offset: 0x10C3D, size: 0x8, addend: 0x0, symName: __ZNSt3__122__make_exception_guardB7v160006INS_6vectorIiNS_9allocatorIiEEE16__destroy_vectorEEENS_28__exception_guard_exceptionsIT_EES7_, symObjAddr: 0x2D50, symBinAddr: 0x100004B54, symSize: 0x40 }
  - { offsetInCU: 0x10C72, offset: 0x10C72, size: 0x8, addend: 0x0, symName: __ZNSt3__119__allocate_at_leastB7v160006INS_9allocatorIiEEEENS_19__allocation_resultINS_16allocator_traitsIT_E7pointerEEERS5_m, symObjAddr: 0x3020, symBinAddr: 0x100004E24, symSize: 0x40 }
  - { offsetInCU: 0x10CB5, offset: 0x10CB5, size: 0x8, addend: 0x0, symName: __ZNSt3__13minB7v160006ImEERKT_S3_S3_, symObjAddr: 0x3134, symBinAddr: 0x100004F38, symSize: 0x2C }
  - { offsetInCU: 0x10EF9, offset: 0x10EF9, size: 0x8, addend: 0x0, symName: __ZNSt3__13minB7v160006ImNS_6__lessImmEEEERKT_S5_S5_T0_, symObjAddr: 0x31C0, symBinAddr: 0x100004FC4, symSize: 0x54 }
  - { offsetInCU: 0x10F8E, offset: 0x10F8E, size: 0x8, addend: 0x0, symName: __ZNSt3__120__throw_length_errorB7v160006EPKc, symObjAddr: 0x329C, symBinAddr: 0x1000050A0, symSize: 0x64 }
  - { offsetInCU: 0x10FB6, offset: 0x10FB6, size: 0x8, addend: 0x0, symName: __ZNSt3__117__libcpp_allocateB7v160006Emm, symObjAddr: 0x340C, symBinAddr: 0x100005210, symSize: 0x28 }
  - { offsetInCU: 0x10FF3, offset: 0x10FF3, size: 0x8, addend: 0x0, symName: __ZNSt3__121__libcpp_operator_newB7v160006IJmEEEPvDpT_, symObjAddr: 0x3434, symBinAddr: 0x100005238, symSize: 0x24 }
  - { offsetInCU: 0x1102C, offset: 0x1102C, size: 0x8, addend: 0x0, symName: __ZNSt3__119__debug_db_insert_cB7v160006INS_6vectorIN2cv3VecIfLi2EEENS_9allocatorIS4_EEEEEEvPT_, symObjAddr: 0x36A4, symBinAddr: 0x1000054A8, symSize: 0x10 }
  - { offsetInCU: 0x1105D, offset: 0x1105D, size: 0x8, addend: 0x0, symName: __ZNSt3__118__debug_db_erase_cB7v160006INS_6vectorIN2cv3VecIfLi2EEENS_9allocatorIS4_EEEEEEvPT_, symObjAddr: 0x3968, symBinAddr: 0x10000576C, symSize: 0x10 }
  - { offsetInCU: 0x1108E, offset: 0x1108E, size: 0x8, addend: 0x0, symName: __ZNSt3__112__to_addressB7v160006IN2cv3VecIfLi2EEEEEPT_S5_, symObjAddr: 0x3A84, symBinAddr: 0x100005888, symSize: 0x14 }
  - { offsetInCU: 0x110C3, offset: 0x110C3, size: 0x8, addend: 0x0, symName: __ZNSt3__13maxB7v160006ImEERKT_S3_S3_, symObjAddr: 0x4454, symBinAddr: 0x100006258, symSize: 0x2C }
  - { offsetInCU: 0x11106, offset: 0x11106, size: 0x8, addend: 0x0, symName: __ZNSt3__13maxB7v160006ImNS_6__lessImmEEEERKT_S5_S5_T0_, symObjAddr: 0x4518, symBinAddr: 0x10000631C, symSize: 0x54 }
  - { offsetInCU: 0x11160, offset: 0x11160, size: 0x8, addend: 0x0, symName: __ZNSt3__119__allocate_at_leastB7v160006INS_9allocatorIN2cv3VecIfLi2EEEEEEENS_19__allocation_resultINS_16allocator_traitsIT_E7pointerEEERS8_m, symObjAddr: 0x467C, symBinAddr: 0x100006480, symSize: 0x40 }
  - { offsetInCU: 0x111A3, offset: 0x111A3, size: 0x8, addend: 0x0, symName: __ZNSt3__142__uninitialized_allocator_move_if_noexceptB7v160006INS_9allocatorIN2cv3VecIfLi2EEEEENS_16reverse_iteratorIPS4_EES8_S8_EET2_RT_T0_T1_S9_, symObjAddr: 0x48FC, symBinAddr: 0x100006700, symSize: 0x12C }
  - { offsetInCU: 0x11243, offset: 0x11243, size: 0x8, addend: 0x0, symName: __ZNSt3__14swapB7v160006IPN2cv3VecIfLi2EEEEENS_9enable_ifIXaasr21is_move_constructibleIT_EE5valuesr18is_move_assignableIS6_EE5valueEvE4typeERS6_S9_, symObjAddr: 0x4A74, symBinAddr: 0x100006878, symSize: 0x3C }
  - { offsetInCU: 0x11294, offset: 0x11294, size: 0x8, addend: 0x0, symName: __ZNSt3__125__debug_db_invalidate_allB7v160006INS_6vectorIN2cv3VecIfLi2EEENS_9allocatorIS4_EEEEEEvPT_, symObjAddr: 0x4B5C, symBinAddr: 0x100006960, symSize: 0x10 }
  - { offsetInCU: 0x112C5, offset: 0x112C5, size: 0x8, addend: 0x0, symName: __ZNSt3__122__make_exception_guardB7v160006INS_29_AllocatorDestroyRangeReverseINS_9allocatorIN2cv3VecIfLi2EEEEENS_16reverse_iteratorIPS5_EEEEEENS_28__exception_guard_exceptionsIT_EESC_, symObjAddr: 0x4B6C, symBinAddr: 0x100006970, symSize: 0x4C }
  - { offsetInCU: 0x112FB, offset: 0x112FB, size: 0x8, addend: 0x0, symName: __ZNSt3__1neB7v160006IPN2cv3VecIfLi2EEES4_EEbRKNS_16reverse_iteratorIT_EERKNS5_IT0_EE, symObjAddr: 0x4BFC, symBinAddr: 0x100006A00, symSize: 0x48 }
  - { offsetInCU: 0x11347, offset: 0x11347, size: 0x8, addend: 0x0, symName: __ZNSt3__112__to_addressB7v160006INS_16reverse_iteratorIPN2cv3VecIfLi2EEEEEvEENS_5decayIDTclsr19__to_address_helperIT_EE6__callclsr3stdE7declvalIRKS8_EEEEE4typeESA_, symObjAddr: 0x4C78, symBinAddr: 0x100006A7C, symSize: 0x24 }
  - { offsetInCU: 0x113A6, offset: 0x113A6, size: 0x8, addend: 0x0, symName: __ZNSt3__119__allocator_destroyB7v160006INS_9allocatorIN2cv3VecIfLi2EEEEENS_16reverse_iteratorINS6_IPS4_EEEES9_EEvRT_T0_T1_, symObjAddr: 0x502C, symBinAddr: 0x100006E30, symSize: 0x70 }
  - { offsetInCU: 0x1140B, offset: 0x1140B, size: 0x8, addend: 0x0, symName: __ZNSt3__1neB7v160006INS_16reverse_iteratorIPN2cv3VecIfLi2EEEEES6_EEbRKNS1_IT_EERKNS1_IT0_EE, symObjAddr: 0x50D8, symBinAddr: 0x100006EDC, symSize: 0x60 }
  - { offsetInCU: 0x11457, offset: 0x11457, size: 0x8, addend: 0x0, symName: __ZNSt3__112__to_addressB7v160006INS_16reverse_iteratorINS1_IPN2cv3VecIfLi2EEEEEEEvEENS_5decayIDTclsr19__to_address_helperIT_EE6__callclsr3stdE7declvalIRKS9_EEEEE4typeESB_, symObjAddr: 0x5138, symBinAddr: 0x100006F3C, symSize: 0x24 }
  - { offsetInCU: 0x11BE5, offset: 0x11BE5, size: 0x8, addend: 0x0, symName: __ZSt28__throw_bad_array_new_lengthB7v160006v, symObjAddr: 0x33D8, symBinAddr: 0x1000051DC, symSize: 0x34 }
  - { offsetInCU: 0x1992F, offset: 0x1992F, size: 0x8, addend: 0x0, symName: __ZNSt3__16vectorIN2cv3VecIfLi2EEENS_9allocatorIS3_EEE26__swap_out_circular_bufferERNS_14__split_bufferIS3_RS5_EE, symObjAddr: 0x4084, symBinAddr: 0x100005E88, symSize: 0x118 }
  - { offsetInCU: 0x1C387, offset: 0x1C387, size: 0x8, addend: 0x0, symName: _main, symObjAddr: 0x0, symBinAddr: 0x100001E04, symSize: 0x11A8 }
  - { offsetInCU: 0x1C664, offset: 0x1C664, size: 0x8, addend: 0x0, symName: __ZNSt3__113basic_ostreamIcNS_11char_traitsIcEEElsB7v160006EPFRS3_S4_E, symObjAddr: 0x11F0, symBinAddr: 0x100002FF4, symSize: 0x2C }
  - { offsetInCU: 0x1C69D, offset: 0x1C69D, size: 0x8, addend: 0x0, symName: __ZNSt3__112basic_stringIcNS_11char_traitsIcEENS_9allocatorIcEEEC1B7v160006IDnEEPKc, symObjAddr: 0x1274, symBinAddr: 0x100003078, symSize: 0x34 }
  - { offsetInCU: 0x1C6DB, offset: 0x1C6DB, size: 0x8, addend: 0x0, symName: __ZN2cv11_InputArrayC1ERKNS_3MatE, symObjAddr: 0x12A8, symBinAddr: 0x1000030AC, symSize: 0x34 }
  - { offsetInCU: 0x1C715, offset: 0x1C715, size: 0x8, addend: 0x0, symName: __ZN2cv12_OutputArrayC1ERNS_3MatE, symObjAddr: 0x12DC, symBinAddr: 0x1000030E0, symSize: 0x34 }
  - { offsetInCU: 0x1C74F, offset: 0x1C74F, size: 0x8, addend: 0x0, symName: __ZN2cv12_OutputArrayD1Ev, symObjAddr: 0x1310, symBinAddr: 0x100003114, symSize: 0x2C }
  - { offsetInCU: 0x1C77C, offset: 0x1C77C, size: 0x8, addend: 0x0, symName: __ZN2cv11_InputArrayD1Ev, symObjAddr: 0x133C, symBinAddr: 0x100003140, symSize: 0x2C }
  - { offsetInCU: 0x1C7A8, offset: 0x1C7A8, size: 0x8, addend: 0x0, symName: __ZN2cv5Size_IiEC1Eii, symObjAddr: 0x1368, symBinAddr: 0x10000316C, symSize: 0x3C }
  - { offsetInCU: 0x1C7F2, offset: 0x1C7F2, size: 0x8, addend: 0x0, symName: __ZNK2cv3Mat4typeEv, symObjAddr: 0x13A4, symBinAddr: 0x1000031A8, symSize: 0x1C }
  - { offsetInCU: 0x1C81B, offset: 0x1C81B, size: 0x8, addend: 0x0, symName: __ZNK2cv3Mat8elemSizeEv, symObjAddr: 0x13C0, symBinAddr: 0x1000031C4, symSize: 0x60 }
  - { offsetInCU: 0x1C853, offset: 0x1C853, size: 0x8, addend: 0x0, symName: __ZNSt3__16vectorIiNS_9allocatorIiEEEC1Em, symObjAddr: 0x1420, symBinAddr: 0x100003224, symSize: 0x34 }
  - { offsetInCU: 0x1C88E, offset: 0x1C88E, size: 0x8, addend: 0x0, symName: __ZNSt3__16vectorIiNS_9allocatorIiEEEixB7v160006Em, symObjAddr: 0x1454, symBinAddr: 0x100003258, symSize: 0x24 }
  - { offsetInCU: 0x1C8C5, offset: 0x1C8C5, size: 0x8, addend: 0x0, symName: __ZNSt3__16vectorIiNS_9allocatorIiEEE4dataB7v160006Ev, symObjAddr: 0x1478, symBinAddr: 0x10000327C, symSize: 0x28 }
  - { offsetInCU: 0x1C8EB, offset: 0x1C8EB, size: 0x8, addend: 0x0, symName: __ZNSt3__16vectorIN2cv3VecIfLi2EEENS_9allocatorIS3_EEEC1B7v160006Ev, symObjAddr: 0x14A0, symBinAddr: 0x1000032A4, symSize: 0x2C }
  - { offsetInCU: 0x1C915, offset: 0x1C915, size: 0x8, addend: 0x0, symName: __ZN2cv12_OutputArrayC1INS_3VecIfLi2EEEEERNSt3__16vectorIT_NS4_9allocatorIS6_EEEE, symObjAddr: 0x14CC, symBinAddr: 0x1000032D0, symSize: 0x34 }
  - { offsetInCU: 0x1C956, offset: 0x1C956, size: 0x8, addend: 0x0, symName: __ZNKSt3__16vectorIN2cv3VecIfLi2EEENS_9allocatorIS3_EEE4sizeB7v160006Ev, symObjAddr: 0x1500, symBinAddr: 0x100003304, symSize: 0x28 }
  - { offsetInCU: 0x1C97C, offset: 0x1C97C, size: 0x8, addend: 0x0, symName: __ZNSt3__16vectorIN2cv3VecIfLi2EEENS_9allocatorIS3_EEE6resizeEm, symObjAddr: 0x1528, symBinAddr: 0x10000332C, symSize: 0x94 }
  - { offsetInCU: 0x1C9C2, offset: 0x1C9C2, size: 0x8, addend: 0x0, symName: __ZNSt3__16vectorIN2cv3VecIfLi2EEENS_9allocatorIS3_EEE4dataB7v160006Ev, symObjAddr: 0x15BC, symBinAddr: 0x1000033C0, symSize: 0x28 }
  - { offsetInCU: 0x1C9E8, offset: 0x1C9E8, size: 0x8, addend: 0x0, symName: __ZNSt3__16vectorIN2cv3VecIfLi2EEENS_9allocatorIS3_EEEixB7v160006Em, symObjAddr: 0x15E4, symBinAddr: 0x1000033E8, symSize: 0x24 }
  - { offsetInCU: 0x1CA1F, offset: 0x1CA1F, size: 0x8, addend: 0x0, symName: __ZN2cv3VecIfLi2EEixEi, symObjAddr: 0x1608, symBinAddr: 0x10000340C, symSize: 0x20 }
  - { offsetInCU: 0x1CA56, offset: 0x1CA56, size: 0x8, addend: 0x0, symName: __ZN2cv6Point_IiEC1Ev, symObjAddr: 0x1628, symBinAddr: 0x10000342C, symSize: 0x2C }
  - { offsetInCU: 0x1CA81, offset: 0x1CA81, size: 0x8, addend: 0x0, symName: __Z3cosB7v160006f, symObjAddr: 0x1654, symBinAddr: 0x100003458, symSize: 0x24 }
  - { offsetInCU: 0x1CAAF, offset: 0x1CAAF, size: 0x8, addend: 0x0, symName: __Z3sinB7v160006f, symObjAddr: 0x1678, symBinAddr: 0x10000347C, symSize: 0x24 }
  - { offsetInCU: 0x1CADE, offset: 0x1CADE, size: 0x8, addend: 0x0, symName: __ZL7cvRoundd, symObjAddr: 0x169C, symBinAddr: 0x1000034A0, symSize: 0x28 }
  - { offsetInCU: 0x1CB10, offset: 0x1CB10, size: 0x8, addend: 0x0, symName: __ZN2cv17_InputOutputArrayC1ERNS_3MatE, symObjAddr: 0x16C4, symBinAddr: 0x1000034C8, symSize: 0x34 }
  - { offsetInCU: 0x1CB4C, offset: 0x1CB4C, size: 0x8, addend: 0x0, symName: __ZN2cv7Scalar_IdEC1Edddd, symObjAddr: 0x16F8, symBinAddr: 0x1000034FC, symSize: 0x4C }
  - { offsetInCU: 0x1CBB4, offset: 0x1CBB4, size: 0x8, addend: 0x0, symName: __ZN2cv17_InputOutputArrayD1Ev, symObjAddr: 0x1744, symBinAddr: 0x100003548, symSize: 0x2C }
  - { offsetInCU: 0x1CBE1, offset: 0x1CBE1, size: 0x8, addend: 0x0, symName: __ZNSt3__16vectorIiNS_9allocatorIiEEEC1B7v160006Ev, symObjAddr: 0x1770, symBinAddr: 0x100003574, symSize: 0x2C }
  - { offsetInCU: 0x1CC0B, offset: 0x1CC0B, size: 0x8, addend: 0x0, symName: __ZNSt3__16vectorIiNS_9allocatorIiEEED1B7v160006Ev, symObjAddr: 0x179C, symBinAddr: 0x1000035A0, symSize: 0x2C }
  - { offsetInCU: 0x1CC35, offset: 0x1CC35, size: 0x8, addend: 0x0, symName: __ZNSt3__16vectorIN2cv3VecIfLi2EEENS_9allocatorIS3_EEED1B7v160006Ev, symObjAddr: 0x17C8, symBinAddr: 0x1000035CC, symSize: 0x2C }
  - { offsetInCU: 0x1CC5F, offset: 0x1CC5F, size: 0x8, addend: 0x0, symName: __ZN2cv11_InputArrayC2ERKNS_3MatE, symObjAddr: 0x17F4, symBinAddr: 0x1000035F8, symSize: 0x44 }
  - { offsetInCU: 0x1CC99, offset: 0x1CC99, size: 0x8, addend: 0x0, symName: __ZN2cv5Size_IiEC1Ev, symObjAddr: 0x1838, symBinAddr: 0x10000363C, symSize: 0x2C }
  - { offsetInCU: 0x1CCC5, offset: 0x1CCC5, size: 0x8, addend: 0x0, symName: __ZN2cv11_InputArray4initEiPKv, symObjAddr: 0x1864, symBinAddr: 0x100003668, symSize: 0x2C }
  - { offsetInCU: 0x1CD09, offset: 0x1CD09, size: 0x8, addend: 0x0, symName: __ZN2cv5Size_IiEC2Ev, symObjAddr: 0x1890, symBinAddr: 0x100003694, symSize: 0x1C }
  - { offsetInCU: 0x1CD35, offset: 0x1CD35, size: 0x8, addend: 0x0, symName: __ZN2cv12_OutputArrayC2ERNS_3MatE, symObjAddr: 0x18AC, symBinAddr: 0x1000036B0, symSize: 0x40 }
  - { offsetInCU: 0x1CD6F, offset: 0x1CD6F, size: 0x8, addend: 0x0, symName: __ZN2cv11_InputArrayC2Ev, symObjAddr: 0x18EC, symBinAddr: 0x1000036F0, symSize: 0x40 }
  - { offsetInCU: 0x1CD9B, offset: 0x1CD9B, size: 0x8, addend: 0x0, symName: __ZN2cv12_OutputArrayD2Ev, symObjAddr: 0x192C, symBinAddr: 0x100003730, symSize: 0x2C }
  - { offsetInCU: 0x1CDC8, offset: 0x1CDC8, size: 0x8, addend: 0x0, symName: __ZN2cv11_InputArrayD2Ev, symObjAddr: 0x1958, symBinAddr: 0x10000375C, symSize: 0x14 }
  - { offsetInCU: 0x1CDF4, offset: 0x1CDF4, size: 0x8, addend: 0x0, symName: __ZN2cv17_InputOutputArrayC2ERNS_3MatE, symObjAddr: 0x196C, symBinAddr: 0x100003770, symSize: 0x40 }
  - { offsetInCU: 0x1CE30, offset: 0x1CE30, size: 0x8, addend: 0x0, symName: __ZN2cv12_OutputArrayC2Ev, symObjAddr: 0x19AC, symBinAddr: 0x1000037B0, symSize: 0x3C }
  - { offsetInCU: 0x1CE5C, offset: 0x1CE5C, size: 0x8, addend: 0x0, symName: __ZN2cv17_InputOutputArrayD2Ev, symObjAddr: 0x19E8, symBinAddr: 0x1000037EC, symSize: 0x2C }
  - { offsetInCU: 0x1CE89, offset: 0x1CE89, size: 0x8, addend: 0x0, symName: __ZN2cv5Size_IiEC2Eii, symObjAddr: 0x1A14, symBinAddr: 0x100003818, symSize: 0x2C }
  - { offsetInCU: 0x1CED3, offset: 0x1CED3, size: 0x8, addend: 0x0, symName: __ZNSt3__112basic_stringIcNS_11char_traitsIcEENS_9allocatorIcEEEC2B7v160006IDnEEPKc, symObjAddr: 0x1A40, symBinAddr: 0x100003844, symSize: 0x60 }
  - { offsetInCU: 0x1CF16, offset: 0x1CF16, size: 0x8, addend: 0x0, symName: __ZNSt3__117__compressed_pairINS_12basic_stringIcNS_11char_traitsIcEENS_9allocatorIcEEE5__repES5_EC1B7v160006INS_18__default_init_tagESA_EEOT_OT0_, symObjAddr: 0x1AA0, symBinAddr: 0x1000038A4, symSize: 0x3C }
  - { offsetInCU: 0x1CF6E, offset: 0x1CF6E, size: 0x8, addend: 0x0, symName: __ZNSt3__111char_traitsIcE6lengthEPKc, symObjAddr: 0x1ADC, symBinAddr: 0x1000038E0, symSize: 0x34 }
  - { offsetInCU: 0x1CF91, offset: 0x1CF91, size: 0x8, addend: 0x0, symName: __ZNSt3__117__compressed_pairINS_12basic_stringIcNS_11char_traitsIcEENS_9allocatorIcEEE5__repES5_EC2B7v160006INS_18__default_init_tagESA_EEOT_OT0_, symObjAddr: 0x1B20, symBinAddr: 0x100003924, symSize: 0x3C }
  - { offsetInCU: 0x1CFE9, offset: 0x1CFE9, size: 0x8, addend: 0x0, symName: __ZNSt3__122__compressed_pair_elemINS_12basic_stringIcNS_11char_traitsIcEENS_9allocatorIcEEE5__repELi0ELb0EEC2B7v160006ENS_18__default_init_tagE, symObjAddr: 0x1B5C, symBinAddr: 0x100003960, symSize: 0x14 }
  - { offsetInCU: 0x1D01E, offset: 0x1D01E, size: 0x8, addend: 0x0, symName: __ZNSt3__122__compressed_pair_elemINS_9allocatorIcEELi1ELb1EEC2B7v160006ENS_18__default_init_tagE, symObjAddr: 0x1B70, symBinAddr: 0x100003974, symSize: 0x2C }
  - { offsetInCU: 0x1D053, offset: 0x1D053, size: 0x8, addend: 0x0, symName: __ZNSt3__19allocatorIcEC2B7v160006Ev, symObjAddr: 0x1B9C, symBinAddr: 0x1000039A0, symSize: 0x2C }
  - { offsetInCU: 0x1D07D, offset: 0x1D07D, size: 0x8, addend: 0x0, symName: __ZNSt3__116__non_trivial_ifILb1ENS_9allocatorIcEEEC2B7v160006Ev, symObjAddr: 0x1BC8, symBinAddr: 0x1000039CC, symSize: 0x14 }
  - { offsetInCU: 0x1D0C5, offset: 0x1D0C5, size: 0x8, addend: 0x0, symName: __ZNKSt3__113basic_ostreamIcNS_11char_traitsIcEEE6sentrycvbB7v160006Ev, symObjAddr: 0x1DF8, symBinAddr: 0x100003BFC, symSize: 0x1C }
  - { offsetInCU: 0x1D0EB, offset: 0x1D0EB, size: 0x8, addend: 0x0, symName: __ZNSt3__119ostreambuf_iteratorIcNS_11char_traitsIcEEEC1B7v160006ERNS_13basic_ostreamIcS2_EE, symObjAddr: 0x2054, symBinAddr: 0x100003E58, symSize: 0x34 }
  - { offsetInCU: 0x1D123, offset: 0x1D123, size: 0x8, addend: 0x0, symName: __ZNKSt3__18ios_base5flagsB7v160006Ev, symObjAddr: 0x2088, symBinAddr: 0x100003E8C, symSize: 0x18 }
  - { offsetInCU: 0x1D14B, offset: 0x1D14B, size: 0x8, addend: 0x0, symName: __ZNKSt3__19basic_iosIcNS_11char_traitsIcEEE4fillB7v160006Ev, symObjAddr: 0x20A0, symBinAddr: 0x100003EA4, symSize: 0x64 }
  - { offsetInCU: 0x1D173, offset: 0x1D173, size: 0x8, addend: 0x0, symName: __ZNKSt3__119ostreambuf_iteratorIcNS_11char_traitsIcEEE6failedB7v160006Ev, symObjAddr: 0x2104, symBinAddr: 0x100003F08, symSize: 0x24 }
  - { offsetInCU: 0x1D199, offset: 0x1D199, size: 0x8, addend: 0x0, symName: __ZNSt3__19basic_iosIcNS_11char_traitsIcEEE8setstateB7v160006Ej, symObjAddr: 0x2128, symBinAddr: 0x100003F2C, symSize: 0x2C }
  - { offsetInCU: 0x1D1CE, offset: 0x1D1CE, size: 0x8, addend: 0x0, symName: __ZNKSt3__18ios_base5widthB7v160006Ev, symObjAddr: 0x2154, symBinAddr: 0x100003F58, symSize: 0x18 }
  - { offsetInCU: 0x1D1F6, offset: 0x1D1F6, size: 0x8, addend: 0x0, symName: __ZNSt3__115basic_streambufIcNS_11char_traitsIcEEE5sputnB7v160006EPKcl, symObjAddr: 0x216C, symBinAddr: 0x100003F70, symSize: 0x3C }
  - { offsetInCU: 0x1D238, offset: 0x1D238, size: 0x8, addend: 0x0, symName: __ZNSt3__112basic_stringIcNS_11char_traitsIcEENS_9allocatorIcEEEC1B7v160006Emc, symObjAddr: 0x21A8, symBinAddr: 0x100003FAC, symSize: 0x3C }
  - { offsetInCU: 0x1D280, offset: 0x1D280, size: 0x8, addend: 0x0, symName: __ZNKSt3__112basic_stringIcNS_11char_traitsIcEENS_9allocatorIcEEE4dataB7v160006Ev, symObjAddr: 0x21E4, symBinAddr: 0x100003FE8, symSize: 0x28 }
  - { offsetInCU: 0x1D2A6, offset: 0x1D2A6, size: 0x8, addend: 0x0, symName: __ZNSt3__18ios_base5widthB7v160006El, symObjAddr: 0x220C, symBinAddr: 0x100004010, symSize: 0x2C }
  - { offsetInCU: 0x1D2EC, offset: 0x1D2EC, size: 0x8, addend: 0x0, symName: __ZNSt3__112basic_stringIcNS_11char_traitsIcEENS_9allocatorIcEEEC2B7v160006Emc, symObjAddr: 0x2238, symBinAddr: 0x10000403C, symSize: 0x54 }
  - { offsetInCU: 0x1D334, offset: 0x1D334, size: 0x8, addend: 0x0, symName: __ZNKSt3__112basic_stringIcNS_11char_traitsIcEENS_9allocatorIcEEE13__get_pointerB7v160006Ev, symObjAddr: 0x22A0, symBinAddr: 0x1000040A4, symSize: 0x54 }
  - { offsetInCU: 0x1D35A, offset: 0x1D35A, size: 0x8, addend: 0x0, symName: __ZNKSt3__112basic_stringIcNS_11char_traitsIcEENS_9allocatorIcEEE9__is_longB7v160006Ev, symObjAddr: 0x22F4, symBinAddr: 0x1000040F8, symSize: 0x38 }
  - { offsetInCU: 0x1D380, offset: 0x1D380, size: 0x8, addend: 0x0, symName: __ZNKSt3__112basic_stringIcNS_11char_traitsIcEENS_9allocatorIcEEE18__get_long_pointerB7v160006Ev, symObjAddr: 0x232C, symBinAddr: 0x100004130, symSize: 0x28 }
  - { offsetInCU: 0x1D3A6, offset: 0x1D3A6, size: 0x8, addend: 0x0, symName: __ZNKSt3__112basic_stringIcNS_11char_traitsIcEENS_9allocatorIcEEE19__get_short_pointerB7v160006Ev, symObjAddr: 0x2354, symBinAddr: 0x100004158, symSize: 0x28 }
  - { offsetInCU: 0x1D3CC, offset: 0x1D3CC, size: 0x8, addend: 0x0, symName: __ZNKSt3__117__compressed_pairINS_12basic_stringIcNS_11char_traitsIcEENS_9allocatorIcEEE5__repES5_E5firstB7v160006Ev, symObjAddr: 0x237C, symBinAddr: 0x100004180, symSize: 0x24 }
  - { offsetInCU: 0x1D3F2, offset: 0x1D3F2, size: 0x8, addend: 0x0, symName: __ZNKSt3__122__compressed_pair_elemINS_12basic_stringIcNS_11char_traitsIcEENS_9allocatorIcEEE5__repELi0ELb0EE5__getB7v160006Ev, symObjAddr: 0x23A0, symBinAddr: 0x1000041A4, symSize: 0x14 }
  - { offsetInCU: 0x1D418, offset: 0x1D418, size: 0x8, addend: 0x0, symName: __ZNSt3__114pointer_traitsIPKcE10pointer_toB7v160006ERS1_, symObjAddr: 0x23B4, symBinAddr: 0x1000041B8, symSize: 0x14 }
  - { offsetInCU: 0x1D43B, offset: 0x1D43B, size: 0x8, addend: 0x0, symName: __ZNSt3__119ostreambuf_iteratorIcNS_11char_traitsIcEEEC2B7v160006ERNS_13basic_ostreamIcS2_EE, symObjAddr: 0x23C8, symBinAddr: 0x1000041CC, symSize: 0x54 }
  - { offsetInCU: 0x1D473, offset: 0x1D473, size: 0x8, addend: 0x0, symName: __ZNKSt3__19basic_iosIcNS_11char_traitsIcEEE5rdbufB7v160006Ev, symObjAddr: 0x241C, symBinAddr: 0x100004220, symSize: 0x24 }
  - { offsetInCU: 0x1D49B, offset: 0x1D49B, size: 0x8, addend: 0x0, symName: __ZNKSt3__18ios_base5rdbufB7v160006Ev, symObjAddr: 0x2440, symBinAddr: 0x100004244, symSize: 0x18 }
  - { offsetInCU: 0x1D4C1, offset: 0x1D4C1, size: 0x8, addend: 0x0, symName: __ZNSt3__111char_traitsIcE11eq_int_typeEii, symObjAddr: 0x2458, symBinAddr: 0x10000425C, symSize: 0x28 }
  - { offsetInCU: 0x1D4F2, offset: 0x1D4F2, size: 0x8, addend: 0x0, symName: __ZNSt3__111char_traitsIcE3eofEv, symObjAddr: 0x2480, symBinAddr: 0x100004284, symSize: 0x8 }
  - { offsetInCU: 0x1D506, offset: 0x1D506, size: 0x8, addend: 0x0, symName: __ZNKSt3__19basic_iosIcNS_11char_traitsIcEEE5widenB7v160006Ec, symObjAddr: 0x2488, symBinAddr: 0x10000428C, symSize: 0x84 }
  - { offsetInCU: 0x1D56F, offset: 0x1D56F, size: 0x8, addend: 0x0, symName: __ZNKSt3__15ctypeIcE5widenB7v160006Ec, symObjAddr: 0x2538, symBinAddr: 0x10000433C, symSize: 0x38 }
  - { offsetInCU: 0x1D5A4, offset: 0x1D5A4, size: 0x8, addend: 0x0, symName: __ZNSt3__18ios_base8setstateB7v160006Ej, symObjAddr: 0x2570, symBinAddr: 0x100004374, symSize: 0x34 }
  - { offsetInCU: 0x1D5DB, offset: 0x1D5DB, size: 0x8, addend: 0x0, symName: __ZNSt3__16vectorIiNS_9allocatorIiEEEC2B7v160006Ev, symObjAddr: 0x25A4, symBinAddr: 0x1000043A8, symSize: 0x58 }
  - { offsetInCU: 0x1D60A, offset: 0x1D60A, size: 0x8, addend: 0x0, symName: __ZNSt3__117__compressed_pairIPiNS_9allocatorIiEEEC1B7v160006IDnNS_18__default_init_tagEEEOT_OT0_, symObjAddr: 0x25FC, symBinAddr: 0x100004400, symSize: 0x3C }
  - { offsetInCU: 0x1D662, offset: 0x1D662, size: 0x8, addend: 0x0, symName: __ZNSt3__117__compressed_pairIPiNS_9allocatorIiEEEC2B7v160006IDnNS_18__default_init_tagEEEOT_OT0_, symObjAddr: 0x2648, symBinAddr: 0x10000444C, symSize: 0x40 }
  - { offsetInCU: 0x1D6BA, offset: 0x1D6BA, size: 0x8, addend: 0x0, symName: __ZNSt3__122__compressed_pair_elemIPiLi0ELb0EEC2B7v160006IDnvEEOT_, symObjAddr: 0x2688, symBinAddr: 0x10000448C, symSize: 0x1C }
  - { offsetInCU: 0x1D6FC, offset: 0x1D6FC, size: 0x8, addend: 0x0, symName: __ZNSt3__122__compressed_pair_elemINS_9allocatorIiEELi1ELb1EEC2B7v160006ENS_18__default_init_tagE, symObjAddr: 0x26A4, symBinAddr: 0x1000044A8, symSize: 0x2C }
  - { offsetInCU: 0x1D731, offset: 0x1D731, size: 0x8, addend: 0x0, symName: __ZNSt3__19allocatorIiEC2B7v160006Ev, symObjAddr: 0x26D0, symBinAddr: 0x1000044D4, symSize: 0x2C }
  - { offsetInCU: 0x1D75B, offset: 0x1D75B, size: 0x8, addend: 0x0, symName: __ZNSt3__116__non_trivial_ifILb1ENS_9allocatorIiEEEC2B7v160006Ev, symObjAddr: 0x26FC, symBinAddr: 0x100004500, symSize: 0x14 }
  - { offsetInCU: 0x1D785, offset: 0x1D785, size: 0x8, addend: 0x0, symName: __ZNSt3__16vectorIiNS_9allocatorIiEEED2B7v160006Ev, symObjAddr: 0x2710, symBinAddr: 0x100004514, symSize: 0x44 }
  - { offsetInCU: 0x1D7AF, offset: 0x1D7AF, size: 0x8, addend: 0x0, symName: __ZNSt3__16vectorIiNS_9allocatorIiEEE16__destroy_vectorC1ERS3_, symObjAddr: 0x2754, symBinAddr: 0x100004558, symSize: 0x34 }
  - { offsetInCU: 0x1D7E8, offset: 0x1D7E8, size: 0x8, addend: 0x0, symName: __ZNSt3__16vectorIiNS_9allocatorIiEEE16__destroy_vectorclB7v160006Ev, symObjAddr: 0x2788, symBinAddr: 0x10000458C, symSize: 0x9C }
  - { offsetInCU: 0x1D80E, offset: 0x1D80E, size: 0x8, addend: 0x0, symName: __ZNSt3__16vectorIiNS_9allocatorIiEEE16__destroy_vectorC2ERS3_, symObjAddr: 0x2824, symBinAddr: 0x100004628, symSize: 0x20 }
  - { offsetInCU: 0x1D847, offset: 0x1D847, size: 0x8, addend: 0x0, symName: __ZNKSt3__16vectorIiNS_9allocatorIiEEE17__annotate_deleteB7v160006Ev, symObjAddr: 0x2844, symBinAddr: 0x100004648, symSize: 0xB8 }
  - { offsetInCU: 0x1D86D, offset: 0x1D86D, size: 0x8, addend: 0x0, symName: __ZNSt3__16vectorIiNS_9allocatorIiEEE7__clearB7v160006Ev, symObjAddr: 0x290C, symBinAddr: 0x100004710, symSize: 0x28 }
  - { offsetInCU: 0x1D893, offset: 0x1D893, size: 0x8, addend: 0x0, symName: __ZNSt3__116allocator_traitsINS_9allocatorIiEEE10deallocateB7v160006ERS2_Pim, symObjAddr: 0x2934, symBinAddr: 0x100004738, symSize: 0x34 }
  - { offsetInCU: 0x1D8D5, offset: 0x1D8D5, size: 0x8, addend: 0x0, symName: __ZNSt3__16vectorIiNS_9allocatorIiEEE7__allocB7v160006Ev, symObjAddr: 0x2968, symBinAddr: 0x10000476C, symSize: 0x28 }
  - { offsetInCU: 0x1D8FB, offset: 0x1D8FB, size: 0x8, addend: 0x0, symName: __ZNKSt3__16vectorIiNS_9allocatorIiEEE8capacityB7v160006Ev, symObjAddr: 0x2990, symBinAddr: 0x100004794, symSize: 0x40 }
  - { offsetInCU: 0x1D921, offset: 0x1D921, size: 0x8, addend: 0x0, symName: __ZNKSt3__16vectorIiNS_9allocatorIiEEE31__annotate_contiguous_containerB7v160006EPKvS5_S5_S5_, symObjAddr: 0x29D0, symBinAddr: 0x1000047D4, symSize: 0x20 }
  - { offsetInCU: 0x1D977, offset: 0x1D977, size: 0x8, addend: 0x0, symName: __ZNKSt3__16vectorIiNS_9allocatorIiEEE4dataB7v160006Ev, symObjAddr: 0x29F0, symBinAddr: 0x1000047F4, symSize: 0x28 }
  - { offsetInCU: 0x1D99D, offset: 0x1D99D, size: 0x8, addend: 0x0, symName: __ZNKSt3__16vectorIiNS_9allocatorIiEEE4sizeB7v160006Ev, symObjAddr: 0x2A18, symBinAddr: 0x10000481C, symSize: 0x28 }
  - { offsetInCU: 0x1D9C3, offset: 0x1D9C3, size: 0x8, addend: 0x0, symName: __ZNSt3__16vectorIiNS_9allocatorIiEEE22__base_destruct_at_endB7v160006EPi, symObjAddr: 0x2A54, symBinAddr: 0x100004858, symSize: 0x8C }
  - { offsetInCU: 0x1DA07, offset: 0x1DA07, size: 0x8, addend: 0x0, symName: __ZNSt3__116allocator_traitsINS_9allocatorIiEEE7destroyB7v160006IivEEvRS2_PT_, symObjAddr: 0x2AE0, symBinAddr: 0x1000048E4, symSize: 0x2C }
  - { offsetInCU: 0x1DA44, offset: 0x1DA44, size: 0x8, addend: 0x0, symName: __ZNSt3__19allocatorIiE7destroyB7v160006EPi, symObjAddr: 0x2B0C, symBinAddr: 0x100004910, symSize: 0x14 }
  - { offsetInCU: 0x1DA78, offset: 0x1DA78, size: 0x8, addend: 0x0, symName: __ZNSt3__19allocatorIiE10deallocateB7v160006EPim, symObjAddr: 0x2B20, symBinAddr: 0x100004924, symSize: 0x40 }
  - { offsetInCU: 0x1DABA, offset: 0x1DABA, size: 0x8, addend: 0x0, symName: __ZNSt3__117__compressed_pairIPiNS_9allocatorIiEEE6secondB7v160006Ev, symObjAddr: 0x2BDC, symBinAddr: 0x1000049E0, symSize: 0x24 }
  - { offsetInCU: 0x1DAE0, offset: 0x1DAE0, size: 0x8, addend: 0x0, symName: __ZNSt3__122__compressed_pair_elemINS_9allocatorIiEELi1ELb1EE5__getB7v160006Ev, symObjAddr: 0x2C00, symBinAddr: 0x100004A04, symSize: 0x14 }
  - { offsetInCU: 0x1DB06, offset: 0x1DB06, size: 0x8, addend: 0x0, symName: __ZNKSt3__16vectorIiNS_9allocatorIiEEE9__end_capB7v160006Ev, symObjAddr: 0x2C14, symBinAddr: 0x100004A18, symSize: 0x28 }
  - { offsetInCU: 0x1DB2C, offset: 0x1DB2C, size: 0x8, addend: 0x0, symName: __ZNKSt3__117__compressed_pairIPiNS_9allocatorIiEEE5firstB7v160006Ev, symObjAddr: 0x2C3C, symBinAddr: 0x100004A40, symSize: 0x24 }
  - { offsetInCU: 0x1DB52, offset: 0x1DB52, size: 0x8, addend: 0x0, symName: __ZNKSt3__122__compressed_pair_elemIPiLi0ELb0EE5__getB7v160006Ev, symObjAddr: 0x2C60, symBinAddr: 0x100004A64, symSize: 0x14 }
  - { offsetInCU: 0x1DB78, offset: 0x1DB78, size: 0x8, addend: 0x0, symName: __ZNSt3__16vectorIiNS_9allocatorIiEEEC2Em, symObjAddr: 0x2C74, symBinAddr: 0x100004A78, symSize: 0xDC }
  - { offsetInCU: 0x1DBC8, offset: 0x1DBC8, size: 0x8, addend: 0x0, symName: __ZNSt3__16vectorIiNS_9allocatorIiEEE11__vallocateB7v160006Em, symObjAddr: 0x2D90, symBinAddr: 0x100004B94, symSize: 0xAC }
  - { offsetInCU: 0x1DC0C, offset: 0x1DC0C, size: 0x8, addend: 0x0, symName: __ZNSt3__16vectorIiNS_9allocatorIiEEE18__construct_at_endEm, symObjAddr: 0x2E3C, symBinAddr: 0x100004C40, symSize: 0xC8 }
  - { offsetInCU: 0x1DC7F, offset: 0x1DC7F, size: 0x8, addend: 0x0, symName: __ZNSt3__128__exception_guard_exceptionsINS_6vectorIiNS_9allocatorIiEEE16__destroy_vectorEE10__completeB7v160006Ev, symObjAddr: 0x2F04, symBinAddr: 0x100004D08, symSize: 0x1C }
  - { offsetInCU: 0x1DCA5, offset: 0x1DCA5, size: 0x8, addend: 0x0, symName: __ZNSt3__128__exception_guard_exceptionsINS_6vectorIiNS_9allocatorIiEEE16__destroy_vectorEED1B7v160006Ev, symObjAddr: 0x2F20, symBinAddr: 0x100004D24, symSize: 0x2C }
  - { offsetInCU: 0x1DCCF, offset: 0x1DCCF, size: 0x8, addend: 0x0, symName: __ZNSt3__128__exception_guard_exceptionsINS_6vectorIiNS_9allocatorIiEEE16__destroy_vectorEEC1B7v160006ES5_, symObjAddr: 0x2F4C, symBinAddr: 0x100004D50, symSize: 0x34 }
  - { offsetInCU: 0x1DD07, offset: 0x1DD07, size: 0x8, addend: 0x0, symName: __ZNSt3__128__exception_guard_exceptionsINS_6vectorIiNS_9allocatorIiEEE16__destroy_vectorEEC2B7v160006ES5_, symObjAddr: 0x2F80, symBinAddr: 0x100004D84, symSize: 0x24 }
  - { offsetInCU: 0x1DD3F, offset: 0x1DD3F, size: 0x8, addend: 0x0, symName: __ZNKSt3__16vectorIiNS_9allocatorIiEEE8max_sizeEv, symObjAddr: 0x2FA4, symBinAddr: 0x100004DA8, symSize: 0x60 }
  - { offsetInCU: 0x1DD67, offset: 0x1DD67, size: 0x8, addend: 0x0, symName: __ZNKSt3__16vectorIiNS_9allocatorIiEEE20__throw_length_errorB7v160006Ev, symObjAddr: 0x3004, symBinAddr: 0x100004E08, symSize: 0x1C }
  - { offsetInCU: 0x1DD8D, offset: 0x1DD8D, size: 0x8, addend: 0x0, symName: __ZNSt3__16vectorIiNS_9allocatorIiEEE9__end_capB7v160006Ev, symObjAddr: 0x3060, symBinAddr: 0x100004E64, symSize: 0x28 }
  - { offsetInCU: 0x1DDB3, offset: 0x1DDB3, size: 0x8, addend: 0x0, symName: __ZNKSt3__16vectorIiNS_9allocatorIiEEE14__annotate_newB7v160006Em, symObjAddr: 0x3088, symBinAddr: 0x100004E8C, symSize: 0xAC }
  - { offsetInCU: 0x1DDF2, offset: 0x1DDF2, size: 0x8, addend: 0x0, symName: __ZNSt3__116allocator_traitsINS_9allocatorIiEEE8max_sizeB7v160006IS2_vEEmRKS2_, symObjAddr: 0x3160, symBinAddr: 0x100004F64, symSize: 0x24 }
  - { offsetInCU: 0x1DE20, offset: 0x1DE20, size: 0x8, addend: 0x0, symName: __ZNKSt3__16vectorIiNS_9allocatorIiEEE7__allocB7v160006Ev, symObjAddr: 0x3184, symBinAddr: 0x100004F88, symSize: 0x28 }
  - { offsetInCU: 0x1DE46, offset: 0x1DE46, size: 0x8, addend: 0x0, symName: __ZNSt3__114numeric_limitsIlE3maxB7v160006Ev, symObjAddr: 0x31AC, symBinAddr: 0x100004FB0, symSize: 0x14 }
  - { offsetInCU: 0x1DE64, offset: 0x1DE64, size: 0x8, addend: 0x0, symName: __ZNKSt3__16__lessImmEclB7v160006ERKmS3_, symObjAddr: 0x3214, symBinAddr: 0x100005018, symSize: 0x34 }
  - { offsetInCU: 0x1DEA6, offset: 0x1DEA6, size: 0x8, addend: 0x0, symName: __ZNKSt3__19allocatorIiE8max_sizeB7v160006Ev, symObjAddr: 0x3248, symBinAddr: 0x10000504C, symSize: 0x14 }
  - { offsetInCU: 0x1DECC, offset: 0x1DECC, size: 0x8, addend: 0x0, symName: __ZNKSt3__117__compressed_pairIPiNS_9allocatorIiEEE6secondB7v160006Ev, symObjAddr: 0x325C, symBinAddr: 0x100005060, symSize: 0x24 }
  - { offsetInCU: 0x1DEF2, offset: 0x1DEF2, size: 0x8, addend: 0x0, symName: __ZNKSt3__122__compressed_pair_elemINS_9allocatorIiEELi1ELb1EE5__getB7v160006Ev, symObjAddr: 0x3280, symBinAddr: 0x100005084, symSize: 0x14 }
  - { offsetInCU: 0x1DF18, offset: 0x1DF18, size: 0x8, addend: 0x0, symName: __ZNSt3__123__libcpp_numeric_limitsIlLb1EE3maxB7v160006Ev, symObjAddr: 0x3294, symBinAddr: 0x100005098, symSize: 0x8 }
  - { offsetInCU: 0x1DF2C, offset: 0x1DF2C, size: 0x8, addend: 0x0, symName: __ZNSt12length_errorC1B7v160006EPKc, symObjAddr: 0x3300, symBinAddr: 0x100005104, symSize: 0x34 }
  - { offsetInCU: 0x1DF64, offset: 0x1DF64, size: 0x8, addend: 0x0, symName: __ZNSt12length_errorC2B7v160006EPKc, symObjAddr: 0x3334, symBinAddr: 0x100005138, symSize: 0x4C }
  - { offsetInCU: 0x1DF9C, offset: 0x1DF9C, size: 0x8, addend: 0x0, symName: __ZNSt3__19allocatorIiE8allocateB7v160006Em, symObjAddr: 0x3380, symBinAddr: 0x100005184, symSize: 0x58 }
  - { offsetInCU: 0x1DFD0, offset: 0x1DFD0, size: 0x8, addend: 0x0, symName: __ZNSt3__117__compressed_pairIPiNS_9allocatorIiEEE5firstB7v160006Ev, symObjAddr: 0x3458, symBinAddr: 0x10000525C, symSize: 0x24 }
  - { offsetInCU: 0x1DFF6, offset: 0x1DFF6, size: 0x8, addend: 0x0, symName: __ZNSt3__122__compressed_pair_elemIPiLi0ELb0EE5__getB7v160006Ev, symObjAddr: 0x347C, symBinAddr: 0x100005280, symSize: 0x14 }
  - { offsetInCU: 0x1E035, offset: 0x1E035, size: 0x8, addend: 0x0, symName: __ZNSt3__16vectorIiNS_9allocatorIiEEE21_ConstructTransactionC1B7v160006ERS3_m, symObjAddr: 0x3490, symBinAddr: 0x100005294, symSize: 0x3C }
  - { offsetInCU: 0x1E07D, offset: 0x1E07D, size: 0x8, addend: 0x0, symName: __ZNSt3__116allocator_traitsINS_9allocatorIiEEE9constructB7v160006IiJEvEEvRS2_PT_DpOT0_, symObjAddr: 0x34CC, symBinAddr: 0x1000052D0, symSize: 0x2C }
  - { offsetInCU: 0x1E0BF, offset: 0x1E0BF, size: 0x8, addend: 0x0, symName: __ZNSt3__16vectorIiNS_9allocatorIiEEE21_ConstructTransactionD1B7v160006Ev, symObjAddr: 0x34F8, symBinAddr: 0x1000052FC, symSize: 0x2C }
  - { offsetInCU: 0x1E0E9, offset: 0x1E0E9, size: 0x8, addend: 0x0, symName: __ZNSt3__16vectorIiNS_9allocatorIiEEE21_ConstructTransactionC2B7v160006ERS3_m, symObjAddr: 0x3524, symBinAddr: 0x100005328, symSize: 0x44 }
  - { offsetInCU: 0x1E131, offset: 0x1E131, size: 0x8, addend: 0x0, symName: __ZNSt3__19allocatorIiE9constructB7v160006IiJEEEvPT_DpOT0_, symObjAddr: 0x3568, symBinAddr: 0x10000536C, symSize: 0x1C }
  - { offsetInCU: 0x1E173, offset: 0x1E173, size: 0x8, addend: 0x0, symName: __ZNSt3__16vectorIiNS_9allocatorIiEEE21_ConstructTransactionD2B7v160006Ev, symObjAddr: 0x3584, symBinAddr: 0x100005388, symSize: 0x20 }
  - { offsetInCU: 0x1E19D, offset: 0x1E19D, size: 0x8, addend: 0x0, symName: __ZNSt3__128__exception_guard_exceptionsINS_6vectorIiNS_9allocatorIiEEE16__destroy_vectorEED2B7v160006Ev, symObjAddr: 0x35A4, symBinAddr: 0x1000053A8, symSize: 0x50 }
  - { offsetInCU: 0x1E1C7, offset: 0x1E1C7, size: 0x8, addend: 0x0, symName: __ZN2cv6Point_IiEC2Ev, symObjAddr: 0x35F4, symBinAddr: 0x1000053F8, symSize: 0x1C }
  - { offsetInCU: 0x1E1F3, offset: 0x1E1F3, size: 0x8, addend: 0x0, symName: __ZNSt3__16vectorIN2cv3VecIfLi2EEENS_9allocatorIS3_EEEC2B7v160006Ev, symObjAddr: 0x3610, symBinAddr: 0x100005414, symSize: 0x58 }
  - { offsetInCU: 0x1E21D, offset: 0x1E21D, size: 0x8, addend: 0x0, symName: __ZNSt3__117__compressed_pairIPN2cv3VecIfLi2EEENS_9allocatorIS3_EEEC1B7v160006IDnNS_18__default_init_tagEEEOT_OT0_, symObjAddr: 0x3668, symBinAddr: 0x10000546C, symSize: 0x3C }
  - { offsetInCU: 0x1E275, offset: 0x1E275, size: 0x8, addend: 0x0, symName: __ZNSt3__117__compressed_pairIPN2cv3VecIfLi2EEENS_9allocatorIS3_EEEC2B7v160006IDnNS_18__default_init_tagEEEOT_OT0_, symObjAddr: 0x36B4, symBinAddr: 0x1000054B8, symSize: 0x40 }
  - { offsetInCU: 0x1E2CD, offset: 0x1E2CD, size: 0x8, addend: 0x0, symName: __ZNSt3__122__compressed_pair_elemIPN2cv3VecIfLi2EEELi0ELb0EEC2B7v160006IDnvEEOT_, symObjAddr: 0x36F4, symBinAddr: 0x1000054F8, symSize: 0x1C }
  - { offsetInCU: 0x1E30F, offset: 0x1E30F, size: 0x8, addend: 0x0, symName: __ZNSt3__122__compressed_pair_elemINS_9allocatorIN2cv3VecIfLi2EEEEELi1ELb1EEC2B7v160006ENS_18__default_init_tagE, symObjAddr: 0x3710, symBinAddr: 0x100005514, symSize: 0x2C }
  - { offsetInCU: 0x1E344, offset: 0x1E344, size: 0x8, addend: 0x0, symName: __ZNSt3__19allocatorIN2cv3VecIfLi2EEEEC2B7v160006Ev, symObjAddr: 0x373C, symBinAddr: 0x100005540, symSize: 0x2C }
  - { offsetInCU: 0x1E36E, offset: 0x1E36E, size: 0x8, addend: 0x0, symName: __ZNSt3__116__non_trivial_ifILb1ENS_9allocatorIN2cv3VecIfLi2EEEEEEC2B7v160006Ev, symObjAddr: 0x3768, symBinAddr: 0x10000556C, symSize: 0x14 }
  - { offsetInCU: 0x1E398, offset: 0x1E398, size: 0x8, addend: 0x0, symName: __ZNSt3__16vectorIN2cv3VecIfLi2EEENS_9allocatorIS3_EEED2B7v160006Ev, symObjAddr: 0x377C, symBinAddr: 0x100005580, symSize: 0x44 }
  - { offsetInCU: 0x1E3C2, offset: 0x1E3C2, size: 0x8, addend: 0x0, symName: __ZNSt3__16vectorIN2cv3VecIfLi2EEENS_9allocatorIS3_EEE16__destroy_vectorC1ERS6_, symObjAddr: 0x37C0, symBinAddr: 0x1000055C4, symSize: 0x34 }
  - { offsetInCU: 0x1E3FB, offset: 0x1E3FB, size: 0x8, addend: 0x0, symName: __ZNSt3__16vectorIN2cv3VecIfLi2EEENS_9allocatorIS3_EEE16__destroy_vectorclB7v160006Ev, symObjAddr: 0x37F4, symBinAddr: 0x1000055F8, symSize: 0x9C }
  - { offsetInCU: 0x1E421, offset: 0x1E421, size: 0x8, addend: 0x0, symName: __ZNSt3__16vectorIN2cv3VecIfLi2EEENS_9allocatorIS3_EEE16__destroy_vectorC2ERS6_, symObjAddr: 0x3890, symBinAddr: 0x100005694, symSize: 0x20 }
  - { offsetInCU: 0x1E45A, offset: 0x1E45A, size: 0x8, addend: 0x0, symName: __ZNKSt3__16vectorIN2cv3VecIfLi2EEENS_9allocatorIS3_EEE17__annotate_deleteB7v160006Ev, symObjAddr: 0x38B0, symBinAddr: 0x1000056B4, symSize: 0xB8 }
  - { offsetInCU: 0x1E480, offset: 0x1E480, size: 0x8, addend: 0x0, symName: __ZNSt3__16vectorIN2cv3VecIfLi2EEENS_9allocatorIS3_EEE7__clearB7v160006Ev, symObjAddr: 0x3978, symBinAddr: 0x10000577C, symSize: 0x28 }
  - { offsetInCU: 0x1E4A6, offset: 0x1E4A6, size: 0x8, addend: 0x0, symName: __ZNSt3__116allocator_traitsINS_9allocatorIN2cv3VecIfLi2EEEEEE10deallocateB7v160006ERS5_PS4_m, symObjAddr: 0x39A0, symBinAddr: 0x1000057A4, symSize: 0x34 }
  - { offsetInCU: 0x1E4E8, offset: 0x1E4E8, size: 0x8, addend: 0x0, symName: __ZNSt3__16vectorIN2cv3VecIfLi2EEENS_9allocatorIS3_EEE7__allocB7v160006Ev, symObjAddr: 0x39D4, symBinAddr: 0x1000057D8, symSize: 0x28 }
  - { offsetInCU: 0x1E50E, offset: 0x1E50E, size: 0x8, addend: 0x0, symName: __ZNKSt3__16vectorIN2cv3VecIfLi2EEENS_9allocatorIS3_EEE8capacityB7v160006Ev, symObjAddr: 0x39FC, symBinAddr: 0x100005800, symSize: 0x40 }
  - { offsetInCU: 0x1E534, offset: 0x1E534, size: 0x8, addend: 0x0, symName: __ZNKSt3__16vectorIN2cv3VecIfLi2EEENS_9allocatorIS3_EEE31__annotate_contiguous_containerB7v160006EPKvS8_S8_S8_, symObjAddr: 0x3A3C, symBinAddr: 0x100005840, symSize: 0x20 }
  - { offsetInCU: 0x1E58A, offset: 0x1E58A, size: 0x8, addend: 0x0, symName: __ZNKSt3__16vectorIN2cv3VecIfLi2EEENS_9allocatorIS3_EEE4dataB7v160006Ev, symObjAddr: 0x3A5C, symBinAddr: 0x100005860, symSize: 0x28 }
  - { offsetInCU: 0x1E5B0, offset: 0x1E5B0, size: 0x8, addend: 0x0, symName: __ZNSt3__16vectorIN2cv3VecIfLi2EEENS_9allocatorIS3_EEE22__base_destruct_at_endB7v160006EPS3_, symObjAddr: 0x3A98, symBinAddr: 0x10000589C, symSize: 0x8C }
  - { offsetInCU: 0x1E5F4, offset: 0x1E5F4, size: 0x8, addend: 0x0, symName: __ZNSt3__116allocator_traitsINS_9allocatorIN2cv3VecIfLi2EEEEEE7destroyB7v160006IS4_vEEvRS5_PT_, symObjAddr: 0x3B24, symBinAddr: 0x100005928, symSize: 0x2C }
  - { offsetInCU: 0x1E631, offset: 0x1E631, size: 0x8, addend: 0x0, symName: __ZNSt3__19allocatorIN2cv3VecIfLi2EEEE7destroyB7v160006EPS3_, symObjAddr: 0x3B50, symBinAddr: 0x100005954, symSize: 0x14 }
  - { offsetInCU: 0x1E665, offset: 0x1E665, size: 0x8, addend: 0x0, symName: __ZNSt3__19allocatorIN2cv3VecIfLi2EEEE10deallocateB7v160006EPS3_m, symObjAddr: 0x3B64, symBinAddr: 0x100005968, symSize: 0x40 }
  - { offsetInCU: 0x1E6A7, offset: 0x1E6A7, size: 0x8, addend: 0x0, symName: __ZNSt3__117__compressed_pairIPN2cv3VecIfLi2EEENS_9allocatorIS3_EEE6secondB7v160006Ev, symObjAddr: 0x3BA4, symBinAddr: 0x1000059A8, symSize: 0x24 }
  - { offsetInCU: 0x1E6CD, offset: 0x1E6CD, size: 0x8, addend: 0x0, symName: __ZNSt3__122__compressed_pair_elemINS_9allocatorIN2cv3VecIfLi2EEEEELi1ELb1EE5__getB7v160006Ev, symObjAddr: 0x3BC8, symBinAddr: 0x1000059CC, symSize: 0x14 }
  - { offsetInCU: 0x1E6F3, offset: 0x1E6F3, size: 0x8, addend: 0x0, symName: __ZNKSt3__16vectorIN2cv3VecIfLi2EEENS_9allocatorIS3_EEE9__end_capB7v160006Ev, symObjAddr: 0x3BDC, symBinAddr: 0x1000059E0, symSize: 0x28 }
  - { offsetInCU: 0x1E719, offset: 0x1E719, size: 0x8, addend: 0x0, symName: __ZNKSt3__117__compressed_pairIPN2cv3VecIfLi2EEENS_9allocatorIS3_EEE5firstB7v160006Ev, symObjAddr: 0x3C04, symBinAddr: 0x100005A08, symSize: 0x24 }
  - { offsetInCU: 0x1E73F, offset: 0x1E73F, size: 0x8, addend: 0x0, symName: __ZNKSt3__122__compressed_pair_elemIPN2cv3VecIfLi2EEELi0ELb0EE5__getB7v160006Ev, symObjAddr: 0x3C28, symBinAddr: 0x100005A2C, symSize: 0x14 }
  - { offsetInCU: 0x1E765, offset: 0x1E765, size: 0x8, addend: 0x0, symName: __ZN2cv12_OutputArrayC2INS_3VecIfLi2EEEEERNSt3__16vectorIT_NS4_9allocatorIS6_EEEE, symObjAddr: 0x3C3C, symBinAddr: 0x100005A40, symSize: 0x44 }
  - { offsetInCU: 0x1E7A6, offset: 0x1E7A6, size: 0x8, addend: 0x0, symName: __ZNSt3__16vectorIN2cv3VecIfLi2EEENS_9allocatorIS3_EEE8__appendEm, symObjAddr: 0x3C80, symBinAddr: 0x100005A84, symSize: 0x108 }
  - { offsetInCU: 0x1E801, offset: 0x1E801, size: 0x8, addend: 0x0, symName: __ZNSt3__16vectorIN2cv3VecIfLi2EEENS_9allocatorIS3_EEE17__destruct_at_endB7v160006EPS3_, symObjAddr: 0x3D88, symBinAddr: 0x100005B8C, symSize: 0x60 }
  - { offsetInCU: 0x1E845, offset: 0x1E845, size: 0x8, addend: 0x0, symName: __ZNSt3__16vectorIN2cv3VecIfLi2EEENS_9allocatorIS3_EEE9__end_capB7v160006Ev, symObjAddr: 0x3DE8, symBinAddr: 0x100005BEC, symSize: 0x28 }
  - { offsetInCU: 0x1E86B, offset: 0x1E86B, size: 0x8, addend: 0x0, symName: __ZNSt3__16vectorIN2cv3VecIfLi2EEENS_9allocatorIS3_EEE18__construct_at_endEm, symObjAddr: 0x3E10, symBinAddr: 0x100005C14, symSize: 0xC8 }
  - { offsetInCU: 0x1E8DE, offset: 0x1E8DE, size: 0x8, addend: 0x0, symName: __ZNKSt3__16vectorIN2cv3VecIfLi2EEENS_9allocatorIS3_EEE11__recommendB7v160006Em, symObjAddr: 0x3ED8, symBinAddr: 0x100005CDC, symSize: 0xB4 }
  - { offsetInCU: 0x1E933, offset: 0x1E933, size: 0x8, addend: 0x0, symName: __ZNSt3__114__split_bufferIN2cv3VecIfLi2EEERNS_9allocatorIS3_EEEC1EmmS6_, symObjAddr: 0x3F8C, symBinAddr: 0x100005D90, symSize: 0x44 }
  - { offsetInCU: 0x1E989, offset: 0x1E989, size: 0x8, addend: 0x0, symName: __ZNSt3__114__split_bufferIN2cv3VecIfLi2EEERNS_9allocatorIS3_EEE18__construct_at_endEm, symObjAddr: 0x3FD0, symBinAddr: 0x100005DD4, symSize: 0xB4 }
  - { offsetInCU: 0x1E9CC, offset: 0x1E9CC, size: 0x8, addend: 0x0, symName: __ZNSt3__114__split_bufferIN2cv3VecIfLi2EEERNS_9allocatorIS3_EEED1Ev, symObjAddr: 0x419C, symBinAddr: 0x100005FA0, symSize: 0x2C }
  - { offsetInCU: 0x1E9F8, offset: 0x1E9F8, size: 0x8, addend: 0x0, symName: __ZNSt3__117__compressed_pairIPN2cv3VecIfLi2EEENS_9allocatorIS3_EEE5firstB7v160006Ev, symObjAddr: 0x41C8, symBinAddr: 0x100005FCC, symSize: 0x24 }
  - { offsetInCU: 0x1EA1E, offset: 0x1EA1E, size: 0x8, addend: 0x0, symName: __ZNSt3__122__compressed_pair_elemIPN2cv3VecIfLi2EEELi0ELb0EE5__getB7v160006Ev, symObjAddr: 0x41EC, symBinAddr: 0x100005FF0, symSize: 0x14 }
  - { offsetInCU: 0x1EA5D, offset: 0x1EA5D, size: 0x8, addend: 0x0, symName: __ZNSt3__16vectorIN2cv3VecIfLi2EEENS_9allocatorIS3_EEE21_ConstructTransactionC1B7v160006ERS6_m, symObjAddr: 0x4200, symBinAddr: 0x100006004, symSize: 0x3C }
  - { offsetInCU: 0x1EAA5, offset: 0x1EAA5, size: 0x8, addend: 0x0, symName: __ZNSt3__116allocator_traitsINS_9allocatorIN2cv3VecIfLi2EEEEEE9constructB7v160006IS4_JEvEEvRS5_PT_DpOT0_, symObjAddr: 0x423C, symBinAddr: 0x100006040, symSize: 0x2C }
  - { offsetInCU: 0x1EAE7, offset: 0x1EAE7, size: 0x8, addend: 0x0, symName: __ZNSt3__16vectorIN2cv3VecIfLi2EEENS_9allocatorIS3_EEE21_ConstructTransactionD1B7v160006Ev, symObjAddr: 0x4268, symBinAddr: 0x10000606C, symSize: 0x2C }
  - { offsetInCU: 0x1EB11, offset: 0x1EB11, size: 0x8, addend: 0x0, symName: __ZNSt3__16vectorIN2cv3VecIfLi2EEENS_9allocatorIS3_EEE21_ConstructTransactionC2B7v160006ERS6_m, symObjAddr: 0x4294, symBinAddr: 0x100006098, symSize: 0x44 }
  - { offsetInCU: 0x1EB59, offset: 0x1EB59, size: 0x8, addend: 0x0, symName: __ZNSt3__19allocatorIN2cv3VecIfLi2EEEE9constructB7v160006IS3_JEEEvPT_DpOT0_, symObjAddr: 0x42D8, symBinAddr: 0x1000060DC, symSize: 0x28 }
  - { offsetInCU: 0x1EB9B, offset: 0x1EB9B, size: 0x8, addend: 0x0, symName: __ZN2cv3VecIfLi2EEC1Ev, symObjAddr: 0x4300, symBinAddr: 0x100006104, symSize: 0x2C }
  - { offsetInCU: 0x1EBC7, offset: 0x1EBC7, size: 0x8, addend: 0x0, symName: __ZN2cv3VecIfLi2EEC2Ev, symObjAddr: 0x432C, symBinAddr: 0x100006130, symSize: 0x2C }
  - { offsetInCU: 0x1EBF3, offset: 0x1EBF3, size: 0x8, addend: 0x0, symName: __ZN2cv4MatxIfLi2ELi1EEC2Ev, symObjAddr: 0x4358, symBinAddr: 0x10000615C, symSize: 0x60 }
  - { offsetInCU: 0x1EC3D, offset: 0x1EC3D, size: 0x8, addend: 0x0, symName: __ZNSt3__16vectorIN2cv3VecIfLi2EEENS_9allocatorIS3_EEE21_ConstructTransactionD2B7v160006Ev, symObjAddr: 0x43B8, symBinAddr: 0x1000061BC, symSize: 0x20 }
  - { offsetInCU: 0x1EC67, offset: 0x1EC67, size: 0x8, addend: 0x0, symName: __ZNKSt3__16vectorIN2cv3VecIfLi2EEENS_9allocatorIS3_EEE8max_sizeEv, symObjAddr: 0x43D8, symBinAddr: 0x1000061DC, symSize: 0x60 }
  - { offsetInCU: 0x1EC8F, offset: 0x1EC8F, size: 0x8, addend: 0x0, symName: __ZNKSt3__16vectorIN2cv3VecIfLi2EEENS_9allocatorIS3_EEE20__throw_length_errorB7v160006Ev, symObjAddr: 0x4438, symBinAddr: 0x10000623C, symSize: 0x1C }
  - { offsetInCU: 0x1ECBF, offset: 0x1ECBF, size: 0x8, addend: 0x0, symName: __ZNSt3__116allocator_traitsINS_9allocatorIN2cv3VecIfLi2EEEEEE8max_sizeB7v160006IS5_vEEmRKS5_, symObjAddr: 0x4480, symBinAddr: 0x100006284, symSize: 0x24 }
  - { offsetInCU: 0x1ECED, offset: 0x1ECED, size: 0x8, addend: 0x0, symName: __ZNKSt3__16vectorIN2cv3VecIfLi2EEENS_9allocatorIS3_EEE7__allocB7v160006Ev, symObjAddr: 0x44A4, symBinAddr: 0x1000062A8, symSize: 0x28 }
  - { offsetInCU: 0x1ED13, offset: 0x1ED13, size: 0x8, addend: 0x0, symName: __ZNKSt3__19allocatorIN2cv3VecIfLi2EEEE8max_sizeB7v160006Ev, symObjAddr: 0x44CC, symBinAddr: 0x1000062D0, symSize: 0x14 }
  - { offsetInCU: 0x1ED39, offset: 0x1ED39, size: 0x8, addend: 0x0, symName: __ZNKSt3__117__compressed_pairIPN2cv3VecIfLi2EEENS_9allocatorIS3_EEE6secondB7v160006Ev, symObjAddr: 0x44E0, symBinAddr: 0x1000062E4, symSize: 0x24 }
  - { offsetInCU: 0x1ED5F, offset: 0x1ED5F, size: 0x8, addend: 0x0, symName: __ZNKSt3__122__compressed_pair_elemINS_9allocatorIN2cv3VecIfLi2EEEEELi1ELb1EE5__getB7v160006Ev, symObjAddr: 0x4504, symBinAddr: 0x100006308, symSize: 0x14 }
  - { offsetInCU: 0x1ED85, offset: 0x1ED85, size: 0x8, addend: 0x0, symName: __ZNSt3__114__split_bufferIN2cv3VecIfLi2EEERNS_9allocatorIS3_EEEC2EmmS6_, symObjAddr: 0x456C, symBinAddr: 0x100006370, symSize: 0xD4 }
  - { offsetInCU: 0x1EDF9, offset: 0x1EDF9, size: 0x8, addend: 0x0, symName: __ZNSt3__117__compressed_pairIPN2cv3VecIfLi2EEERNS_9allocatorIS3_EEEC1B7v160006IDnS7_EEOT_OT0_, symObjAddr: 0x4640, symBinAddr: 0x100006444, symSize: 0x3C }
  - { offsetInCU: 0x1EE51, offset: 0x1EE51, size: 0x8, addend: 0x0, symName: __ZNSt3__114__split_bufferIN2cv3VecIfLi2EEERNS_9allocatorIS3_EEE7__allocB7v160006Ev, symObjAddr: 0x46BC, symBinAddr: 0x1000064C0, symSize: 0x28 }
  - { offsetInCU: 0x1EE77, offset: 0x1EE77, size: 0x8, addend: 0x0, symName: __ZNSt3__114__split_bufferIN2cv3VecIfLi2EEERNS_9allocatorIS3_EEE9__end_capB7v160006Ev, symObjAddr: 0x46E4, symBinAddr: 0x1000064E8, symSize: 0x28 }
  - { offsetInCU: 0x1EE9D, offset: 0x1EE9D, size: 0x8, addend: 0x0, symName: __ZNSt3__117__compressed_pairIPN2cv3VecIfLi2EEERNS_9allocatorIS3_EEEC2B7v160006IDnS7_EEOT_OT0_, symObjAddr: 0x470C, symBinAddr: 0x100006510, symSize: 0x48 }
  - { offsetInCU: 0x1EEF5, offset: 0x1EEF5, size: 0x8, addend: 0x0, symName: __ZNSt3__122__compressed_pair_elemIRNS_9allocatorIN2cv3VecIfLi2EEEEELi1ELb0EEC2B7v160006IS6_vEEOT_, symObjAddr: 0x4754, symBinAddr: 0x100006558, symSize: 0x20 }
  - { offsetInCU: 0x1EF37, offset: 0x1EF37, size: 0x8, addend: 0x0, symName: __ZNSt3__19allocatorIN2cv3VecIfLi2EEEE8allocateB7v160006Em, symObjAddr: 0x4774, symBinAddr: 0x100006578, symSize: 0x58 }
  - { offsetInCU: 0x1EF6B, offset: 0x1EF6B, size: 0x8, addend: 0x0, symName: __ZNSt3__117__compressed_pairIPN2cv3VecIfLi2EEERNS_9allocatorIS3_EEE6secondB7v160006Ev, symObjAddr: 0x47CC, symBinAddr: 0x1000065D0, symSize: 0x28 }
  - { offsetInCU: 0x1EF91, offset: 0x1EF91, size: 0x8, addend: 0x0, symName: __ZNSt3__122__compressed_pair_elemIRNS_9allocatorIN2cv3VecIfLi2EEEEELi1ELb0EE5__getB7v160006Ev, symObjAddr: 0x47F4, symBinAddr: 0x1000065F8, symSize: 0x18 }
  - { offsetInCU: 0x1EFB7, offset: 0x1EFB7, size: 0x8, addend: 0x0, symName: __ZNSt3__117__compressed_pairIPN2cv3VecIfLi2EEERNS_9allocatorIS3_EEE5firstB7v160006Ev, symObjAddr: 0x480C, symBinAddr: 0x100006610, symSize: 0x24 }
  - { offsetInCU: 0x1EFE7, offset: 0x1EFE7, size: 0x8, addend: 0x0, symName: __ZNSt3__114__split_bufferIN2cv3VecIfLi2EEERNS_9allocatorIS3_EEE21_ConstructTransactionC1B7v160006EPPS3_m, symObjAddr: 0x4830, symBinAddr: 0x100006634, symSize: 0x3C }
  - { offsetInCU: 0x1F02D, offset: 0x1F02D, size: 0x8, addend: 0x0, symName: __ZNSt3__114__split_bufferIN2cv3VecIfLi2EEERNS_9allocatorIS3_EEE21_ConstructTransactionD1B7v160006Ev, symObjAddr: 0x486C, symBinAddr: 0x100006670, symSize: 0x2C }
  - { offsetInCU: 0x1F057, offset: 0x1F057, size: 0x8, addend: 0x0, symName: __ZNSt3__114__split_bufferIN2cv3VecIfLi2EEERNS_9allocatorIS3_EEE21_ConstructTransactionC2B7v160006EPPS3_m, symObjAddr: 0x4898, symBinAddr: 0x10000669C, symSize: 0x44 }
  - { offsetInCU: 0x1F09D, offset: 0x1F09D, size: 0x8, addend: 0x0, symName: __ZNSt3__114__split_bufferIN2cv3VecIfLi2EEERNS_9allocatorIS3_EEE21_ConstructTransactionD2B7v160006Ev, symObjAddr: 0x48DC, symBinAddr: 0x1000066E0, symSize: 0x20 }
  - { offsetInCU: 0x1F0C7, offset: 0x1F0C7, size: 0x8, addend: 0x0, symName: __ZNSt3__116reverse_iteratorIPN2cv3VecIfLi2EEEEC1B7v160006ES4_, symObjAddr: 0x4A28, symBinAddr: 0x10000682C, symSize: 0x34 }
  - { offsetInCU: 0x1F0FF, offset: 0x1F0FF, size: 0x8, addend: 0x0, symName: __ZNKSt3__116reverse_iteratorIPN2cv3VecIfLi2EEEE4baseB7v160006Ev, symObjAddr: 0x4A5C, symBinAddr: 0x100006860, symSize: 0x18 }
  - { offsetInCU: 0x1F125, offset: 0x1F125, size: 0x8, addend: 0x0, symName: __ZNKSt3__16vectorIN2cv3VecIfLi2EEENS_9allocatorIS3_EEE14__annotate_newB7v160006Em, symObjAddr: 0x4AB0, symBinAddr: 0x1000068B4, symSize: 0xAC }
  - { offsetInCU: 0x1F15A, offset: 0x1F15A, size: 0x8, addend: 0x0, symName: __ZNSt3__129_AllocatorDestroyRangeReverseINS_9allocatorIN2cv3VecIfLi2EEEEENS_16reverse_iteratorIPS4_EEEC1B7v160006ERS5_RS8_SB_, symObjAddr: 0x4BB8, symBinAddr: 0x1000069BC, symSize: 0x44 }
  - { offsetInCU: 0x1F1B1, offset: 0x1F1B1, size: 0x8, addend: 0x0, symName: __ZNSt3__116allocator_traitsINS_9allocatorIN2cv3VecIfLi2EEEEEE9constructB7v160006IS4_JRKS4_EvEEvRS5_PT_DpOT0_, symObjAddr: 0x4C44, symBinAddr: 0x100006A48, symSize: 0x34 }
  - { offsetInCU: 0x1F208, offset: 0x1F208, size: 0x8, addend: 0x0, symName: __ZNKSt3__116reverse_iteratorIPN2cv3VecIfLi2EEEEdeB7v160006Ev, symObjAddr: 0x4C9C, symBinAddr: 0x100006AA0, symSize: 0x28 }
  - { offsetInCU: 0x1F23C, offset: 0x1F23C, size: 0x8, addend: 0x0, symName: __ZNSt3__116reverse_iteratorIPN2cv3VecIfLi2EEEEppB7v160006Ev, symObjAddr: 0x4CC4, symBinAddr: 0x100006AC8, symSize: 0x20 }
  - { offsetInCU: 0x1F262, offset: 0x1F262, size: 0x8, addend: 0x0, symName: __ZNSt3__128__exception_guard_exceptionsINS_29_AllocatorDestroyRangeReverseINS_9allocatorIN2cv3VecIfLi2EEEEENS_16reverse_iteratorIPS5_EEEEE10__completeB7v160006Ev, symObjAddr: 0x4CE4, symBinAddr: 0x100006AE8, symSize: 0x1C }
  - { offsetInCU: 0x1F288, offset: 0x1F288, size: 0x8, addend: 0x0, symName: __ZNSt3__128__exception_guard_exceptionsINS_29_AllocatorDestroyRangeReverseINS_9allocatorIN2cv3VecIfLi2EEEEENS_16reverse_iteratorIPS5_EEEEED1B7v160006Ev, symObjAddr: 0x4D00, symBinAddr: 0x100006B04, symSize: 0x2C }
  - { offsetInCU: 0x1F2B2, offset: 0x1F2B2, size: 0x8, addend: 0x0, symName: __ZNSt3__128__exception_guard_exceptionsINS_29_AllocatorDestroyRangeReverseINS_9allocatorIN2cv3VecIfLi2EEEEENS_16reverse_iteratorIPS5_EEEEEC1B7v160006ESA_, symObjAddr: 0x4D2C, symBinAddr: 0x100006B30, symSize: 0x34 }
  - { offsetInCU: 0x1F2EB, offset: 0x1F2EB, size: 0x8, addend: 0x0, symName: __ZNSt3__128__exception_guard_exceptionsINS_29_AllocatorDestroyRangeReverseINS_9allocatorIN2cv3VecIfLi2EEEEENS_16reverse_iteratorIPS5_EEEEEC2B7v160006ESA_, symObjAddr: 0x4D60, symBinAddr: 0x100006B64, symSize: 0x30 }
  - { offsetInCU: 0x1F324, offset: 0x1F324, size: 0x8, addend: 0x0, symName: __ZNSt3__129_AllocatorDestroyRangeReverseINS_9allocatorIN2cv3VecIfLi2EEEEENS_16reverse_iteratorIPS4_EEEC2B7v160006ERS5_RS8_SB_, symObjAddr: 0x4D90, symBinAddr: 0x100006B94, symSize: 0x38 }
  - { offsetInCU: 0x1F37B, offset: 0x1F37B, size: 0x8, addend: 0x0, symName: __ZNSt3__19allocatorIN2cv3VecIfLi2EEEE9constructB7v160006IS3_JRKS3_EEEvPT_DpOT0_, symObjAddr: 0x4DC8, symBinAddr: 0x100006BCC, symSize: 0x30 }
  - { offsetInCU: 0x1F3D1, offset: 0x1F3D1, size: 0x8, addend: 0x0, symName: __ZN2cv3VecIfLi2EEC1ERKS1_, symObjAddr: 0x4DF8, symBinAddr: 0x100006BFC, symSize: 0x34 }
  - { offsetInCU: 0x1F40C, offset: 0x1F40C, size: 0x8, addend: 0x0, symName: __ZN2cv3VecIfLi2EEC2ERKS1_, symObjAddr: 0x4E2C, symBinAddr: 0x100006C30, symSize: 0x34 }
  - { offsetInCU: 0x1F447, offset: 0x1F447, size: 0x8, addend: 0x0, symName: __ZN2cv4MatxIfLi2ELi1EEC2EPKf, symObjAddr: 0x4E60, symBinAddr: 0x100006C64, symSize: 0x6C }
  - { offsetInCU: 0x1F4A4, offset: 0x1F4A4, size: 0x8, addend: 0x0, symName: __ZNSt3__119__to_address_helperINS_16reverse_iteratorIPN2cv3VecIfLi2EEEEEvE6__callB7v160006ERKS6_, symObjAddr: 0x4ECC, symBinAddr: 0x100006CD0, symSize: 0x38 }
  - { offsetInCU: 0x1F4C7, offset: 0x1F4C7, size: 0x8, addend: 0x0, symName: __ZNKSt3__116reverse_iteratorIPN2cv3VecIfLi2EEEEptB7v160006Ev, symObjAddr: 0x4F04, symBinAddr: 0x100006D08, symSize: 0x24 }
  - { offsetInCU: 0x1F4ED, offset: 0x1F4ED, size: 0x8, addend: 0x0, symName: __ZNSt3__128__exception_guard_exceptionsINS_29_AllocatorDestroyRangeReverseINS_9allocatorIN2cv3VecIfLi2EEEEENS_16reverse_iteratorIPS5_EEEEED2B7v160006Ev, symObjAddr: 0x4F28, symBinAddr: 0x100006D2C, symSize: 0x50 }
  - { offsetInCU: 0x1F517, offset: 0x1F517, size: 0x8, addend: 0x0, symName: __ZNKSt3__129_AllocatorDestroyRangeReverseINS_9allocatorIN2cv3VecIfLi2EEEEENS_16reverse_iteratorIPS4_EEEclB7v160006Ev, symObjAddr: 0x4F78, symBinAddr: 0x100006D7C, symSize: 0xB4 }
  - { offsetInCU: 0x1F53E, offset: 0x1F53E, size: 0x8, addend: 0x0, symName: __ZNSt3__116reverse_iteratorINS0_IPN2cv3VecIfLi2EEEEEEC1B7v160006ES5_, symObjAddr: 0x509C, symBinAddr: 0x100006EA0, symSize: 0x3C }
  - { offsetInCU: 0x1F576, offset: 0x1F576, size: 0x8, addend: 0x0, symName: __ZNSt3__116reverse_iteratorINS0_IPN2cv3VecIfLi2EEEEEEppB7v160006Ev, symObjAddr: 0x515C, symBinAddr: 0x100006F60, symSize: 0x30 }
  - { offsetInCU: 0x1F59C, offset: 0x1F59C, size: 0x8, addend: 0x0, symName: __ZNKSt3__116reverse_iteratorINS0_IPN2cv3VecIfLi2EEEEEE4baseB7v160006Ev, symObjAddr: 0x518C, symBinAddr: 0x100006F90, symSize: 0x24 }
  - { offsetInCU: 0x1F5C7, offset: 0x1F5C7, size: 0x8, addend: 0x0, symName: __ZNSt3__119__to_address_helperINS_16reverse_iteratorINS1_IPN2cv3VecIfLi2EEEEEEEvE6__callB7v160006ERKS7_, symObjAddr: 0x51B0, symBinAddr: 0x100006FB4, symSize: 0x38 }
  - { offsetInCU: 0x1F5EA, offset: 0x1F5EA, size: 0x8, addend: 0x0, symName: __ZNKSt3__116reverse_iteratorINS0_IPN2cv3VecIfLi2EEEEEEptB7v160006Ev, symObjAddr: 0x51E8, symBinAddr: 0x100006FEC, symSize: 0x24 }
  - { offsetInCU: 0x1F610, offset: 0x1F610, size: 0x8, addend: 0x0, symName: __ZNKSt3__116reverse_iteratorINS0_IPN2cv3VecIfLi2EEEEEEdeB7v160006Ev, symObjAddr: 0x520C, symBinAddr: 0x100007010, symSize: 0x34 }
  - { offsetInCU: 0x1F644, offset: 0x1F644, size: 0x8, addend: 0x0, symName: __ZNSt3__116reverse_iteratorIPN2cv3VecIfLi2EEEEmmB7v160006Ev, symObjAddr: 0x5240, symBinAddr: 0x100007044, symSize: 0x20 }
  - { offsetInCU: 0x1F66A, offset: 0x1F66A, size: 0x8, addend: 0x0, symName: __ZNSt3__116reverse_iteratorINS0_IPN2cv3VecIfLi2EEEEEEC2B7v160006ES5_, symObjAddr: 0x5260, symBinAddr: 0x100007064, symSize: 0x2C }
  - { offsetInCU: 0x1F6A2, offset: 0x1F6A2, size: 0x8, addend: 0x0, symName: __ZNSt3__116reverse_iteratorIPN2cv3VecIfLi2EEEEC2B7v160006ES4_, symObjAddr: 0x528C, symBinAddr: 0x100007090, symSize: 0x28 }
  - { offsetInCU: 0x1F6DA, offset: 0x1F6DA, size: 0x8, addend: 0x0, symName: __ZNSt3__114__split_bufferIN2cv3VecIfLi2EEERNS_9allocatorIS3_EEED2Ev, symObjAddr: 0x52B4, symBinAddr: 0x1000070B8, symSize: 0x8C }
  - { offsetInCU: 0x1F706, offset: 0x1F706, size: 0x8, addend: 0x0, symName: __ZNSt3__114__split_bufferIN2cv3VecIfLi2EEERNS_9allocatorIS3_EEE5clearB7v160006Ev, symObjAddr: 0x5340, symBinAddr: 0x100007144, symSize: 0x28 }
  - { offsetInCU: 0x1F72C, offset: 0x1F72C, size: 0x8, addend: 0x0, symName: __ZNKSt3__114__split_bufferIN2cv3VecIfLi2EEERNS_9allocatorIS3_EEE8capacityB7v160006Ev, symObjAddr: 0x5368, symBinAddr: 0x10000716C, symSize: 0x40 }
  - { offsetInCU: 0x1F752, offset: 0x1F752, size: 0x8, addend: 0x0, symName: __ZNSt3__114__split_bufferIN2cv3VecIfLi2EEERNS_9allocatorIS3_EEE17__destruct_at_endB7v160006EPS3_, symObjAddr: 0x53A8, symBinAddr: 0x1000071AC, symSize: 0x2C }
  - { offsetInCU: 0x1F786, offset: 0x1F786, size: 0x8, addend: 0x0, symName: __ZNSt3__114__split_bufferIN2cv3VecIfLi2EEERNS_9allocatorIS3_EEE17__destruct_at_endB7v160006EPS3_NS_17integral_constantIbLb0EEE, symObjAddr: 0x53D4, symBinAddr: 0x1000071D8, symSize: 0x80 }
  - { offsetInCU: 0x1F7C7, offset: 0x1F7C7, size: 0x8, addend: 0x0, symName: __ZNKSt3__114__split_bufferIN2cv3VecIfLi2EEERNS_9allocatorIS3_EEE9__end_capB7v160006Ev, symObjAddr: 0x5454, symBinAddr: 0x100007258, symSize: 0x28 }
  - { offsetInCU: 0x1F7ED, offset: 0x1F7ED, size: 0x8, addend: 0x0, symName: __ZNKSt3__117__compressed_pairIPN2cv3VecIfLi2EEERNS_9allocatorIS3_EEE5firstB7v160006Ev, symObjAddr: 0x547C, symBinAddr: 0x100007280, symSize: 0x24 }
  - { offsetInCU: 0x1F813, offset: 0x1F813, size: 0x8, addend: 0x0, symName: __ZNSt3__16vectorIN2cv3VecIfLi2EEENS_9allocatorIS3_EEE27__invalidate_iterators_pastB7v160006EPS3_, symObjAddr: 0x54A0, symBinAddr: 0x1000072A4, symSize: 0x14 }
  - { offsetInCU: 0x1F84A, offset: 0x1F84A, size: 0x8, addend: 0x0, symName: __ZNKSt3__16vectorIN2cv3VecIfLi2EEENS_9allocatorIS3_EEE17__annotate_shrinkB7v160006Em, symObjAddr: 0x54B4, symBinAddr: 0x1000072B8, symSize: 0xB4 }
  - { offsetInCU: 0x1F87F, offset: 0x1F87F, size: 0x8, addend: 0x0, symName: __ZN2cv7Scalar_IdEC2Edddd, symObjAddr: 0x5568, symBinAddr: 0x10000736C, symSize: 0x5C }
  - { offsetInCU: 0x1F8E7, offset: 0x1F8E7, size: 0x8, addend: 0x0, symName: __ZN2cv3VecIdLi4EEC2Ev, symObjAddr: 0x55C4, symBinAddr: 0x1000073C8, symSize: 0x2C }
  - { offsetInCU: 0x1F913, offset: 0x1F913, size: 0x8, addend: 0x0, symName: __ZN2cv4MatxIdLi4ELi1EEC2Ev, symObjAddr: 0x55F0, symBinAddr: 0x1000073F4, symSize: 0x60 }
...
